target datalayout = "e-m:e-p270:32:32-p271:32:32-p272:64:64-i64:64-i128:128-f80:128-n8:16:32:64-S128"
target triple = "x86_64-pc-linux-gnu"

%struct.mysql_conn_data = type { i16, i16, i16, i16, ptr, i8, i32, i32, i8, i8, i8, i8, i32, i32, ptr, ptr, i32, i32, i32, i64, %struct.my_metadata_list_t, i32, i32 }
%struct.my_metadata_list_t = type { i16, ptr, ptr, ptr }
%struct._packet_info = type { ptr, ptr, i32, i32, %struct.nstime_t, %struct.nstime_t, %struct.nstime_t, i8, ptr, ptr, ptr, ptr, %struct._address, %struct._address, %struct._address, %struct._address, %struct._address, %struct._address, i32, ptr, i8, [3 x i8], %struct.anon, i32, i32, i32, i32, ptr, i8, ptr, ptr, i16, i16, i32, i32, i16, i32, i32, ptr, ptr, ptr, i8, i8, i16, i16, i16, i32, i16, i16, ptr, ptr, ptr, ptr, ptr, i32, i32 }
%struct.nstime_t = type { i64, i32 }
%struct._address = type { i32, i32, ptr, ptr }
%struct.anon = type { i8, [3 x i8] }
%struct._frame_data = type <{ i32, i32, i32, i32, i32, [4 x i8], i64, ptr, ptr, ptr, i8, i16, [5 x i8], %struct.nstime_t, %struct.nstime_t, i32, i32 }>

@hf_mysql_auth_switch_request_status = internal global i32 0, align 4
@hf_mysql_auth_switch_request_name = internal global i32 0, align 4
@hf_mysql_auth_switch_request_data = internal global i32 0, align 4
@.str.1244 = private unnamed_addr constant [21 x i8] c"Auth Switch Request \00", align 1

; Function Attrs: null_pointer_is_valid sspstrong uwtable
define internal i32 @my_tvb_strsize(ptr noundef %0, i32 noundef %1) #0 {
  %3 = alloca ptr, align 8
  %4 = alloca i32, align 4
  %5 = alloca i32, align 4
  store ptr %0, ptr %3, align 8
  store i32 %1, ptr %4, align 4
  call void @llvm.lifetime.start.p0(i64 4, ptr %5) #11
  %6 = load ptr, ptr %3, align 8
  %7 = load i32, ptr %4, align 4
  %8 = call i32 @tvb_strnlen(ptr noundef %6, i32 noundef %7, i32 noundef -1)
  store i32 %8, ptr %5, align 4
  %9 = load i32, ptr %5, align 4
  %10 = icmp eq i32 %9, -1
  br i1 %10, label %11, label %15

11:                                               ; preds = %2
  %12 = load ptr, ptr %3, align 8
  %13 = load i32, ptr %4, align 4
  %14 = call i32 @tvb_reported_length_remaining(ptr noundef %12, i32 noundef %13)
  store i32 %14, ptr %5, align 4
  br label %18

15:                                               ; preds = %2
  %16 = load i32, ptr %5, align 4
  %17 = add i32 %16, 1
  store i32 %17, ptr %5, align 4
  br label %18

18:                                               ; preds = %15, %11
  %19 = load i32, ptr %5, align 4
  call void @llvm.lifetime.end.p0(i64 4, ptr %5) #11
  ret i32 %19
}

; Function Attrs: nounwind null_pointer_is_valid sspstrong uwtable
define internal void @mysql_set_conn_state(ptr noundef %0, ptr noundef %1, i32 noundef %2) #6 {
  %4 = alloca ptr, align 8
  %5 = alloca ptr, align 8
  %6 = alloca i32, align 4
  store ptr %0, ptr %4, align 8
  store ptr %1, ptr %5, align 8
  store i32 %2, ptr %6, align 4
  %7 = load ptr, ptr %4, align 8
  %8 = getelementptr inbounds nuw %struct._packet_info, ptr %7, i32 0, i32 8
  %9 = load ptr, ptr %8, align 8
  %10 = getelementptr inbounds nuw %struct._frame_data, ptr %9, i32 0, i32 11
  %11 = load i16, ptr %10, align 1
  %12 = lshr i16 %11, 3
  %13 = and i16 %12, 1
  %14 = zext i16 %13 to i32
  %15 = icmp ne i32 %14, 0
  br i1 %15, label %20, label %16

16:                                               ; preds = %3
  %17 = load i32, ptr %6, align 4
  %18 = load ptr, ptr %5, align 8
  %19 = getelementptr inbounds nuw %struct.mysql_conn_data, ptr %18, i32 0, i32 16
  store i32 %17, ptr %19, align 8
  br label %20

20:                                               ; preds = %16, %3
  ret void
}

; Function Attrs: null_pointer_is_valid sspstrong uwtable
define internal i32 @mysql_dissect_auth_switch_request(ptr noundef %0, ptr noundef %1, i32 noundef %2, ptr noundef %3, ptr noundef %4) #0 {
  %6 = alloca ptr, align 8
  %7 = alloca ptr, align 8
  %8 = alloca i32, align 4
  %9 = alloca ptr, align 8
  %10 = alloca ptr, align 8
  %11 = alloca i32, align 4
  store ptr %0, ptr %6, align 8
  store ptr %1, ptr %7, align 8
  store i32 %2, ptr %8, align 4
  store ptr %3, ptr %9, align 8
  store ptr %4, ptr %10, align 8
  call void @llvm.lifetime.start.p0(i64 4, ptr %11) #11
  %12 = load ptr, ptr %7, align 8
  %13 = getelementptr inbounds nuw %struct._packet_info, ptr %12, i32 0, i32 1
  %14 = load ptr, ptr %13, align 8
  call void @col_set_str(ptr noundef %14, i32 noundef 25, ptr noundef @.str.1244)
  %15 = load ptr, ptr %7, align 8
  %16 = getelementptr inbounds nuw %struct._packet_info, ptr %15, i32 0, i32 1
  %17 = load ptr, ptr %16, align 8
  call void @col_set_fence(ptr noundef %17, i32 noundef 25)
  %18 = load ptr, ptr %7, align 8
  %19 = load ptr, ptr %10, align 8
  call void @mysql_set_conn_state(ptr noundef %18, ptr noundef %19, i32 noundef 17)
  %20 = load ptr, ptr %10, align 8
  %21 = getelementptr inbounds nuw %struct.mysql_conn_data, ptr %20, i32 0, i32 3
  %22 = load i16, ptr %21, align 2
  %23 = zext i16 %22 to i32
  %24 = and i32 %23, 8
  %25 = icmp ne i32 %24, 0
  br i1 %25, label %26, label %58

26:                                               ; preds = %5
  %27 = load ptr, ptr %6, align 8
  %28 = load i32, ptr %8, align 4
  %29 = call i32 @my_tvb_strsize(ptr noundef %27, i32 noundef %28)
  store i32 %29, ptr %11, align 4
  %30 = load ptr, ptr %9, align 8
  %31 = load i32, ptr @hf_mysql_auth_switch_request_name, align 4
  %32 = load ptr, ptr %6, align 8
  %33 = load i32, ptr %8, align 4
  %34 = load i32, ptr %11, align 4
  %35 = call ptr @proto_tree_add_item(ptr noundef %30, i32 noundef %31, ptr noundef %32, i32 noundef %33, i32 noundef %34, i32 noundef 0)
  %36 = call ptr @wmem_file_scope()
  %37 = load ptr, ptr %6, align 8
  %38 = load i32, ptr %8, align 4
  %39 = load i32, ptr %11, align 4
  %40 = call ptr @tvb_get_string_enc(ptr noundef %36, ptr noundef %37, i32 noundef %38, i32 noundef %39, i32 noundef 0)
  %41 = load ptr, ptr %10, align 8
  %42 = getelementptr inbounds nuw %struct.mysql_conn_data, ptr %41, i32 0, i32 14
  store ptr %40, ptr %42, align 8
  %43 = load i32, ptr %11, align 4
  %44 = load i32, ptr %8, align 4
  %45 = add i32 %44, %43
  store i32 %45, ptr %8, align 4
  %46 = load ptr, ptr %6, align 8
  %47 = load i32, ptr %8, align 4
  %48 = call i32 @my_tvb_strsize(ptr noundef %46, i32 noundef %47)
  store i32 %48, ptr %11, align 4
  %49 = load ptr, ptr %9, align 8
  %50 = load i32, ptr @hf_mysql_auth_switch_request_data, align 4
  %51 = load ptr, ptr %6, align 8
  %52 = load i32, ptr %8, align 4
  %53 = load i32, ptr %11, align 4
  %54 = call ptr @proto_tree_add_item(ptr noundef %49, i32 noundef %50, ptr noundef %51, i32 noundef %52, i32 noundef %53, i32 noundef 0)
  %55 = load i32, ptr %11, align 4
  %56 = load i32, ptr %8, align 4
  %57 = add i32 %56, %55
  store i32 %57, ptr %8, align 4
  br label %66

58:                                               ; preds = %5
  %59 = load ptr, ptr %9, align 8
  %60 = load i32, ptr @hf_mysql_auth_switch_request_status, align 4
  %61 = load ptr, ptr %6, align 8
  %62 = load i32, ptr %8, align 4
  %63 = call ptr @proto_tree_add_item(ptr noundef %59, i32 noundef %60, ptr noundef %61, i32 noundef %62, i32 noundef 1, i32 noundef -2147483648)
  %64 = load i32, ptr %8, align 4
  %65 = add i32 %64, 1
  store i32 %65, ptr %8, align 4
  br label %66

66:                                               ; preds = %58, %26
  %67 = load i32, ptr %8, align 4
  %68 = load ptr, ptr %6, align 8
  %69 = load i32, ptr %8, align 4
  %70 = call i32 @tvb_reported_length_remaining(ptr noundef %68, i32 noundef %69)
  %71 = add i32 %67, %70
  call void @llvm.lifetime.end.p0(i64 4, ptr %11) #11
  ret i32 %71
}