; Function Attrs: null_pointer_is_valid sspstrong uwtable
define internal fastcc i32 @mysql_dissect_auth_switch_request(ptr noundef %0, ptr noundef readonly captures(none) %1, i32 noundef range(i32 4, 6) %2, ptr noundef %3, ptr noundef captures(none) %4) unnamed_addr #0 {
  %6 = getelementptr inbounds nuw i8, ptr %1, i64 8
  %7 = load ptr, ptr %6, align 8
  tail call void @col_set_str(ptr noundef %7, i32 noundef 25, ptr noundef nonnull @.str.1244)
  %8 = load ptr, ptr %6, align 8
  tail call void @col_set_fence(ptr noundef %8, i32 noundef 25)
  %9 = getelementptr i8, ptr %1, i64 80
  %.val = load ptr, ptr %9, align 8
  %10 = getelementptr i8, ptr %.val, i64 57
  %.val.val = load i16, ptr %10, align 1
  %11 = and i16 %.val.val, 8
  %.not.i = icmp eq i16 %11, 0
  br i1 %.not.i, label %12, label %mysql_set_conn_state.exit

12:                                               ; preds = %5
  %13 = getelementptr inbounds nuw i8, ptr %4, i64 56
  store i32 17, ptr %13, align 8
  br label %mysql_set_conn_state.exit

mysql_set_conn_state.exit:                        ; preds = %5, %12
  %14 = getelementptr inbounds nuw i8, ptr %4, i64 6
  %15 = load i16, ptr %14, align 2
  %16 = and i16 %15, 8
  %.not = icmp eq i16 %16, 0
  br i1 %.not, label %39, label %17

17:                                               ; preds = %mysql_set_conn_state.exit
  %18 = tail call i32 @tvb_strnlen(ptr noundef %0, i32 noundef %2, i32 noundef -1)
  %19 = icmp eq i32 %18, -1
  br i1 %19, label %20, label %22

20:                                               ; preds = %17
  %21 = tail call i32 @tvb_reported_length_remaining(ptr noundef %0, i32 noundef %2)
  br label %my_tvb_strsize.exit

22:                                               ; preds = %17
  %23 = add nuw i32 %18, 1
  br label %my_tvb_strsize.exit

my_tvb_strsize.exit:                              ; preds = %20, %22
  %.0.i = phi i32 [ %21, %20 ], [ %23, %22 ]
  %24 = load i32, ptr @hf_mysql_auth_switch_request_name, align 4
  %25 = tail call ptr @proto_tree_add_item(ptr noundef %3, i32 noundef %24, ptr noundef %0, i32 noundef %2, i32 noundef %.0.i, i32 noundef 0)
  %26 = tail call ptr @wmem_file_scope()
  %27 = tail call ptr @tvb_get_string_enc(ptr noundef %26, ptr noundef %0, i32 noundef %2, i32 noundef %.0.i, i32 noundef 0)
  %28 = getelementptr inbounds nuw i8, ptr %4, i64 40
  store ptr %27, ptr %28, align 8
  %29 = add i32 %.0.i, %2
  %30 = tail call i32 @tvb_strnlen(ptr noundef %0, i32 noundef %29, i32 noundef -1)
  %31 = icmp eq i32 %30, -1
  br i1 %31, label %32, label %34

32:                                               ; preds = %my_tvb_strsize.exit
  %33 = tail call i32 @tvb_reported_length_remaining(ptr noundef %0, i32 noundef %29)
  br label %my_tvb_strsize.exit32

34:                                               ; preds = %my_tvb_strsize.exit
  %35 = add nuw i32 %30, 1
  br label %my_tvb_strsize.exit32

my_tvb_strsize.exit32:                            ; preds = %32, %34
  %.0.i31 = phi i32 [ %33, %32 ], [ %35, %34 ]
  %36 = load i32, ptr @hf_mysql_auth_switch_request_data, align 4
  %37 = tail call ptr @proto_tree_add_item(ptr noundef %3, i32 noundef %36, ptr noundef %0, i32 noundef %29, i32 noundef %.0.i31, i32 noundef 0)
  %38 = add i32 %.0.i31, %29
  br label %43

39:                                               ; preds = %mysql_set_conn_state.exit
  %40 = load i32, ptr @hf_mysql_auth_switch_request_status, align 4
  %41 = tail call ptr @proto_tree_add_item(ptr noundef %3, i32 noundef %40, ptr noundef %0, i32 noundef %2, i32 noundef 1, i32 noundef -2147483648)
  %42 = add nuw nsw i32 %2, 1
  br label %43

43:                                               ; preds = %39, %my_tvb_strsize.exit32
  %.0 = phi i32 [ %38, %my_tvb_strsize.exit32 ], [ %42, %39 ]
  %44 = tail call i32 @tvb_reported_length_remaining(ptr noundef %0, i32 noundef %.0)
  %45 = add i32 %44, %.0
  ret i32 %45
}